target datalayout = "e-m:e-p270:32:32-p271:32:32-p272:64:64-i64:64-i128:128-f80:128-n8:16:32:64-S128"
target triple = "x86_64-pc-linux-gnu"

%"class.V3List<V3GraphVertex, &V3GraphVertex::links>::SimpleItertatorImpl" = type { ptr }
%class.GraphAcyc = type <{ ptr, %class.V3Graph, %class.V3List.3, %"class.std::vector", ptr, i32, [4 x i8] }>
%class.V3Graph = type { ptr, %class.V3List }
%class.V3List = type { ptr, ptr }
%class.V3List.3 = type { ptr, ptr }
%"class.std::vector" = type { %"struct.std::_Vector_base" }
%"struct.std::_Vector_base" = type { %"struct.std::_Vector_base<std::__cxx11::list<V3GraphEdge *> *, std::allocator<std::__cxx11::list<V3GraphEdge *> *>>::_Vector_impl" }
%"struct.std::_Vector_base<std::__cxx11::list<V3GraphEdge *> *, std::allocator<std::__cxx11::list<V3GraphEdge *> *>>::_Vector_impl" = type { %"struct.std::_Vector_base<std::__cxx11::list<V3GraphEdge *> *, std::allocator<std::__cxx11::list<V3GraphEdge *> *>>::_Vector_impl_data" }
%"struct.std::_Vector_base<std::__cxx11::list<V3GraphEdge *> *, std::allocator<std::__cxx11::list<V3GraphEdge *> *>>::_Vector_impl_data" = type { ptr, ptr, ptr }
%class.V3GraphVertex = type { ptr, %class.V3ListLinks, %class.V3List.0, %class.V3List.1, double, i32, i32, %union.anon }
%class.V3ListLinks = type { ptr, ptr }
%class.V3List.0 = type { ptr, ptr }
%class.V3List.1 = type { ptr, ptr }
%union.anon = type { ptr }
%class.GraphAcycVertex = type <{ %class.V3GraphVertex, ptr, %class.V3ListLinks.2, i32, i8, i8, [2 x i8] }>
%class.V3ListLinks.2 = type { ptr, ptr }

; Function Attrs: alwaysinline mustprogress uwtable
define linkonce_odr dso_local noundef nonnull align 8 dereferenceable(16) ptr @_ZN6V3ListI13V3GraphVertexXadL_ZNS0_5linksEvEES0_E7toLinksEPKS0_(ptr noundef %0) #8 comdat align 2 {
  %2 = alloca ptr, align 8
  store ptr %0, ptr %2, align 8, !tbaa !13
  %3 = load ptr, ptr %2, align 8, !tbaa !13
  %4 = getelementptr inbounds i8, ptr %3, i64 0
  br i1 false, label %5, label %9

5:                                                ; preds = %1
  %6 = load ptr, ptr %4, align 8, !tbaa !31
  %7 = getelementptr i8, ptr %6, i64 sub (i64 ptrtoint (ptr @_ZN13V3GraphVertex5linksEv to i64), i64 1), !nosanitize !66
  %8 = load ptr, ptr %7, align 8, !nosanitize !66
  br label %10

9:                                                ; preds = %1
  br label %10

10:                                               ; preds = %9, %5
  %11 = phi ptr [ %8, %5 ], [ @_ZN13V3GraphVertex5linksEv, %9 ]
  %12 = call noundef nonnull align 8 dereferenceable(16) ptr %11(ptr noundef nonnull align 8 dereferenceable(80) %4)
  ret ptr %12
}

; Function Attrs: mustprogress nounwind uwtable
define linkonce_odr dso_local void @_ZN11V3ListLinksI15GraphAcycVertexEC2Ev(ptr noundef nonnull align 8 dereferenceable(16) %0) unnamed_addr #6 comdat align 2 {
  %2 = alloca ptr, align 8
  store ptr %0, ptr %2, align 8, !tbaa !189
  %3 = load ptr, ptr %2, align 8
  %4 = getelementptr inbounds nuw %class.V3ListLinks.2, ptr %3, i32 0, i32 0
  store ptr null, ptr %4, align 8, !tbaa !191
  %5 = getelementptr inbounds nuw %class.V3ListLinks.2, ptr %3, i32 0, i32 1
  store ptr null, ptr %5, align 8, !tbaa !192
  ret void
}

; Function Attrs: alwaysinline mustprogress nounwind uwtable
define linkonce_odr dso_local void @_ZN6V3ListI13V3GraphVertexXadL_ZNS0_5linksEvEES0_E8prefetchEPKS0_S3_(ptr noundef %0, ptr noundef %1) #7 comdat align 2 {
  %3 = alloca ptr, align 8
  %4 = alloca ptr, align 8
  store ptr %0, ptr %3, align 8, !tbaa !13
  store ptr %1, ptr %4, align 8, !tbaa !13
  br label %5

5:                                                ; preds = %2
  br label %6

6:                                                ; preds = %5
  %7 = load ptr, ptr %3, align 8, !tbaa !13
  %8 = icmp ne ptr %7, null
  br i1 %8, label %9, label %11

9:                                                ; preds = %6
  %10 = load ptr, ptr %3, align 8, !tbaa !13
  br label %13

11:                                               ; preds = %6
  %12 = load ptr, ptr %4, align 8, !tbaa !13
  br label %13

13:                                               ; preds = %11, %9
  %14 = phi ptr [ %10, %9 ], [ %12, %11 ]
  call void @llvm.prefetch.p0(ptr %14, i32 1, i32 3, i32 1)
  ret void
}

; Function Attrs: alwaysinline mustprogress uwtable
define linkonce_odr dso_local noundef ptr @_ZN6V3ListI13V3GraphVertexXadL_ZNS0_5linksEvEES0_E19SimpleItertatorImplIS0_Lb0EE4stepEPS0_(ptr noundef %0) #8 comdat align 2 {
  %2 = alloca ptr, align 8
  store ptr %0, ptr %2, align 8, !tbaa !13
  %3 = load ptr, ptr %2, align 8, !tbaa !13
  %4 = call noundef nonnull align 8 dereferenceable(16) ptr @_ZN6V3ListI13V3GraphVertexXadL_ZNS0_5linksEvEES0_E7toLinksEPKS0_(ptr noundef %3)
  %5 = getelementptr inbounds nuw %class.V3ListLinks, ptr %4, i32 0, i32 0
  %6 = load ptr, ptr %5, align 8, !tbaa !137
  ret ptr %6
}

; Function Attrs: alwaysinline mustprogress nounwind uwtable
define linkonce_odr dso_local void @_ZN6V3ListI13V3GraphVertexXadL_ZNS0_5linksEvEES0_E19SimpleItertatorImplIS0_Lb0EEC2EPS0_(ptr noundef nonnull align 8 dereferenceable(8) %0, ptr noundef %1) unnamed_addr #7 comdat align 2 {
  %3 = alloca ptr, align 8
  %4 = alloca ptr, align 8
  store ptr %0, ptr %3, align 8, !tbaa !19
  store ptr %1, ptr %4, align 8, !tbaa !13
  %5 = load ptr, ptr %3, align 8
  %6 = getelementptr inbounds nuw %"class.V3List<V3GraphVertex, &V3GraphVertex::links>::SimpleItertatorImpl", ptr %5, i32 0, i32 0
  %7 = load ptr, ptr %4, align 8, !tbaa !13
  store ptr %7, ptr %6, align 8, !tbaa !21
  ret void
}

; Function Attrs: mustprogress nounwind uwtable
define linkonce_odr dso_local noundef ptr @_ZNK13V3GraphVertex5userpEv(ptr noundef nonnull align 8 dereferenceable(80) %0) #6 comdat align 2 {
  %2 = alloca ptr, align 8
  store ptr %0, ptr %2, align 8, !tbaa !13
  %3 = load ptr, ptr %2, align 8
  %4 = getelementptr inbounds nuw %class.V3GraphVertex, ptr %3, i32 0, i32 7
  %5 = load ptr, ptr %4, align 8, !tbaa !41
  ret ptr %5
}

; Function Attrs: alwaysinline mustprogress uwtable
define linkonce_odr dso_local noundef nonnull align 8 dereferenceable(8) ptr @_ZN6V3ListI13V3GraphVertexXadL_ZNS0_5linksEvEES0_E19SimpleItertatorImplIS0_Lb0EEppEv(ptr noundef nonnull align 8 dereferenceable(8) %0) #8 comdat align 2 {
  %2 = alloca ptr, align 8
  store ptr %0, ptr %2, align 8, !tbaa !19
  %3 = load ptr, ptr %2, align 8
  br label %4

4:                                                ; preds = %1
  br label %5

5:                                                ; preds = %4
  %6 = getelementptr inbounds nuw %"class.V3List<V3GraphVertex, &V3GraphVertex::links>::SimpleItertatorImpl", ptr %3, i32 0, i32 0
  %7 = load ptr, ptr %6, align 8, !tbaa !21
  %8 = call noundef ptr @_ZN6V3ListI13V3GraphVertexXadL_ZNS0_5linksEvEES0_E19SimpleItertatorImplIS0_Lb0EE4stepEPS0_(ptr noundef %7)
  %9 = getelementptr inbounds nuw %"class.V3List<V3GraphVertex, &V3GraphVertex::links>::SimpleItertatorImpl", ptr %3, i32 0, i32 0
  store ptr %8, ptr %9, align 8, !tbaa !21
  ret ptr %3
}

; Function Attrs: mustprogress nounwind uwtable
define linkonce_odr dso_local void @_ZN13V3GraphVertex5userpEPv(ptr noundef nonnull align 8 dereferenceable(80) %0, ptr noundef %1) #6 comdat align 2 {
  %3 = alloca ptr, align 8
  %4 = alloca ptr, align 8
  store ptr %0, ptr %3, align 8, !tbaa !13
  store ptr %1, ptr %4, align 8, !tbaa !40
  %5 = load ptr, ptr %3, align 8
  %6 = load ptr, ptr %4, align 8, !tbaa !40
  %7 = getelementptr inbounds nuw %class.V3GraphVertex, ptr %5, i32 0, i32 7
  store ptr %6, ptr %7, align 8, !tbaa !41
  ret void
}

; Function Attrs: mustprogress uwtable
define linkonce_odr dso_local void @_ZN15GraphAcycVertexC2EP7V3GraphP13V3GraphVertex(ptr noundef nonnull align 8 dereferenceable(112) %0, ptr noundef %1, ptr noundef %2) unnamed_addr #4 comdat align 2 {
  %4 = alloca ptr, align 8
  %5 = alloca ptr, align 8
  %6 = alloca ptr, align 8
  store ptr %0, ptr %4, align 8, !tbaa !15
  store ptr %1, ptr %5, align 8, !tbaa !9
  store ptr %2, ptr %6, align 8, !tbaa !13
  %7 = load ptr, ptr %4, align 8
  %8 = load ptr, ptr %5, align 8, !tbaa !9
  call void @_ZN13V3GraphVertexC2EP7V3Graph(ptr noundef nonnull align 8 dereferenceable(80) %7, ptr noundef %8)
  store ptr getelementptr inbounds inrange(-16, 104) ({ [15 x ptr] }, ptr @_ZTV15GraphAcycVertex, i32 0, i32 0, i32 2), ptr %7, align 8, !tbaa !31
  %9 = getelementptr inbounds nuw %class.GraphAcycVertex, ptr %7, i32 0, i32 1
  %10 = load ptr, ptr %6, align 8, !tbaa !13
  store ptr %10, ptr %9, align 8, !tbaa !33
  %11 = getelementptr inbounds nuw %class.GraphAcycVertex, ptr %7, i32 0, i32 2
  call void @_ZN11V3ListLinksI15GraphAcycVertexEC2Ev(ptr noundef nonnull align 8 dereferenceable(16) %11) #3
  %12 = getelementptr inbounds nuw %class.GraphAcycVertex, ptr %7, i32 0, i32 3
  store i32 0, ptr %12, align 8, !tbaa !37
  %13 = getelementptr inbounds nuw %class.GraphAcycVertex, ptr %7, i32 0, i32 4
  store i8 0, ptr %13, align 4, !tbaa !38
  %14 = getelementptr inbounds nuw %class.GraphAcycVertex, ptr %7, i32 0, i32 5
  store i8 0, ptr %14, align 1, !tbaa !39
  ret void
}

; Function Attrs: mustprogress nounwind uwtable
define linkonce_odr dso_local noundef i32 @_ZNK13V3GraphVertex5colorEv(ptr noundef nonnull align 8 dereferenceable(80) %0) #6 comdat align 2 {
  %2 = alloca ptr, align 8
  store ptr %0, ptr %2, align 8, !tbaa !13
  %3 = load ptr, ptr %2, align 8
  %4 = getelementptr inbounds nuw %class.V3GraphVertex, ptr %3, i32 0, i32 5
  %5 = load i32, ptr %4, align 8, !tbaa !23
  ret i32 %5
}

; Function Attrs: alwaysinline mustprogress uwtable
define linkonce_odr dso_local noundef nonnull align 8 dereferenceable(80) ptr @_ZNK6V3ListI13V3GraphVertexXadL_ZNS0_5linksEvEES0_E19SimpleItertatorImplIS0_Lb0EEdeEv(ptr noundef nonnull align 8 dereferenceable(8) %0) #8 comdat align 2 {
  %2 = alloca ptr, align 8
  store ptr %0, ptr %2, align 8, !tbaa !19
  %3 = load ptr, ptr %2, align 8
  br label %4

4:                                                ; preds = %1
  br label %5

5:                                                ; preds = %4
  %6 = getelementptr inbounds nuw %"class.V3List<V3GraphVertex, &V3GraphVertex::links>::SimpleItertatorImpl", ptr %3, i32 0, i32 0
  %7 = load ptr, ptr %6, align 8, !tbaa !21
  %8 = call noundef ptr @_ZN6V3ListI13V3GraphVertexXadL_ZNS0_5linksEvEES0_E19SimpleItertatorImplIS0_Lb0EE4stepEPS0_(ptr noundef %7)
  %9 = getelementptr inbounds nuw %"class.V3List<V3GraphVertex, &V3GraphVertex::links>::SimpleItertatorImpl", ptr %3, i32 0, i32 0
  %10 = load ptr, ptr %9, align 8, !tbaa !21
  call void @_ZN6V3ListI13V3GraphVertexXadL_ZNS0_5linksEvEES0_E8prefetchEPKS0_S3_(ptr noundef %8, ptr noundef %10)
  %11 = getelementptr inbounds nuw %"class.V3List<V3GraphVertex, &V3GraphVertex::links>::SimpleItertatorImpl", ptr %3, i32 0, i32 0
  %12 = load ptr, ptr %11, align 8, !tbaa !21
  ret ptr %12
}

; Function Attrs: alwaysinline mustprogress nounwind uwtable
define linkonce_odr dso_local noundef zeroext i1 @_ZNK6V3ListI13V3GraphVertexXadL_ZNS0_5linksEvEES0_E19SimpleItertatorImplIS0_Lb0EEneERKS3_(ptr noundef nonnull align 8 dereferenceable(8) %0, ptr noundef nonnull align 8 dereferenceable(8) %1) #7 comdat align 2 {
  %3 = alloca ptr, align 8
  %4 = alloca ptr, align 8
  store ptr %0, ptr %3, align 8, !tbaa !19
  store ptr %1, ptr %4, align 8, !tbaa !19
  %5 = load ptr, ptr %3, align 8
  %6 = getelementptr inbounds nuw %"class.V3List<V3GraphVertex, &V3GraphVertex::links>::SimpleItertatorImpl", ptr %5, i32 0, i32 0
  %7 = load ptr, ptr %6, align 8, !tbaa !21
  %8 = load ptr, ptr %4, align 8, !tbaa !19
  %9 = getelementptr inbounds nuw %"class.V3List<V3GraphVertex, &V3GraphVertex::links>::SimpleItertatorImpl", ptr %8, i32 0, i32 0
  %10 = load ptr, ptr %9, align 8, !tbaa !21
  %11 = icmp ne ptr %7, %10
  ret i1 %11
}

; Function Attrs: mustprogress uwtable
define linkonce_odr dso_local ptr @_ZN6V3ListI13V3GraphVertexXadL_ZNS0_5linksEvEES0_E3endEv(ptr noundef nonnull align 8 dereferenceable(16) %0) #4 comdat align 2 {
  %2 = alloca %"class.V3List<V3GraphVertex, &V3GraphVertex::links>::SimpleItertatorImpl", align 8
  %3 = alloca ptr, align 8
  store ptr %0, ptr %3, align 8, !tbaa !11
  call void @_ZN6V3ListI13V3GraphVertexXadL_ZNS0_5linksEvEES0_E19SimpleItertatorImplIS0_Lb0EEC2EPS0_(ptr noundef nonnull align 8 dereferenceable(8) %2, ptr noundef null)
  %4 = getelementptr inbounds nuw %"class.V3List<V3GraphVertex, &V3GraphVertex::links>::SimpleItertatorImpl", ptr %2, i32 0, i32 0
  %5 = load ptr, ptr %4, align 8
  ret ptr %5
}

; Function Attrs: mustprogress uwtable
define linkonce_odr dso_local ptr @_ZN6V3ListI13V3GraphVertexXadL_ZNS0_5linksEvEES0_E5beginEv(ptr noundef nonnull align 8 dereferenceable(16) %0) #4 comdat align 2 {
  %2 = alloca %"class.V3List<V3GraphVertex, &V3GraphVertex::links>::SimpleItertatorImpl", align 8
  %3 = alloca ptr, align 8
  store ptr %0, ptr %3, align 8, !tbaa !11
  %4 = load ptr, ptr %3, align 8
  %5 = getelementptr inbounds nuw %class.V3List, ptr %4, i32 0, i32 0
  %6 = load ptr, ptr %5, align 8, !tbaa !17
  call void @_ZN6V3ListI13V3GraphVertexXadL_ZNS0_5linksEvEES0_E19SimpleItertatorImplIS0_Lb0EEC2EPS0_(ptr noundef nonnull align 8 dereferenceable(8) %2, ptr noundef %6)
  %7 = getelementptr inbounds nuw %"class.V3List<V3GraphVertex, &V3GraphVertex::links>::SimpleItertatorImpl", ptr %2, i32 0, i32 0
  %8 = load ptr, ptr %7, align 8
  ret ptr %8
}

; Function Attrs: mustprogress nounwind uwtable
define linkonce_odr dso_local noundef nonnull align 8 dereferenceable(16) ptr @_ZN7V3Graph8verticesEv(ptr noundef nonnull align 8 dereferenceable(24) %0) #6 comdat align 2 {
  %2 = alloca ptr, align 8
  store ptr %0, ptr %2, align 8, !tbaa !9
  %3 = load ptr, ptr %2, align 8
  %4 = getelementptr inbounds nuw %class.V3Graph, ptr %3, i32 0, i32 1
  ret ptr %4
}

; Function Attrs: mustprogress uwtable
define dso_local void @_ZN9GraphAcyc10buildGraphEP7V3Graph(ptr noundef nonnull align 8 dereferenceable(88) %0, ptr noundef %1) #4 align 2 personality ptr @__gxx_personality_v0 {
  %3 = alloca ptr, align 8
  %4 = alloca ptr, align 8
  %5 = alloca ptr, align 8
  %6 = alloca %"class.V3List<V3GraphVertex, &V3GraphVertex::links>::SimpleItertatorImpl", align 8
  %7 = alloca %"class.V3List<V3GraphVertex, &V3GraphVertex::links>::SimpleItertatorImpl", align 8
  %8 = alloca ptr, align 8
  %9 = alloca ptr, align 8
  %10 = alloca ptr, align 8
  %11 = alloca i32, align 4
  %12 = alloca ptr, align 8
  %13 = alloca %"class.V3List<V3GraphVertex, &V3GraphVertex::links>::SimpleItertatorImpl", align 8
  %14 = alloca %"class.V3List<V3GraphVertex, &V3GraphVertex::links>::SimpleItertatorImpl", align 8
  %15 = alloca ptr, align 8
  %16 = alloca ptr, align 8
  store ptr %0, ptr %3, align 8, !tbaa !4
  store ptr %1, ptr %4, align 8, !tbaa !9
  %17 = load ptr, ptr %3, align 8
  %18 = load ptr, ptr %4, align 8, !tbaa !9
  call void @_ZN7V3Graph17userClearVerticesEv(ptr noundef nonnull align 8 dereferenceable(24) %18)
  %19 = load ptr, ptr %4, align 8, !tbaa !9
  call void @_ZN7V3Graph14userClearEdgesEv(ptr noundef nonnull align 8 dereferenceable(24) %19)
  call void @llvm.lifetime.start.p0(i64 8, ptr %5) #3
  %20 = load ptr, ptr %4, align 8, !tbaa !9
  %21 = call noundef nonnull align 8 dereferenceable(16) ptr @_ZN7V3Graph8verticesEv(ptr noundef nonnull align 8 dereferenceable(24) %20)
  store ptr %21, ptr %5, align 8, !tbaa !11
  call void @llvm.lifetime.start.p0(i64 8, ptr %6) #3
  %22 = load ptr, ptr %5, align 8, !tbaa !11
  %23 = call ptr @_ZN6V3ListI13V3GraphVertexXadL_ZNS0_5linksEvEES0_E5beginEv(ptr noundef nonnull align 8 dereferenceable(16) %22)
  %24 = getelementptr inbounds nuw %"class.V3List<V3GraphVertex, &V3GraphVertex::links>::SimpleItertatorImpl", ptr %6, i32 0, i32 0
  store ptr %23, ptr %24, align 8
  call void @llvm.lifetime.start.p0(i64 8, ptr %7) #3
  %25 = load ptr, ptr %5, align 8, !tbaa !11
  %26 = call ptr @_ZN6V3ListI13V3GraphVertexXadL_ZNS0_5linksEvEES0_E3endEv(ptr noundef nonnull align 8 dereferenceable(16) %25)
  %27 = getelementptr inbounds nuw %"class.V3List<V3GraphVertex, &V3GraphVertex::links>::SimpleItertatorImpl", ptr %7, i32 0, i32 0
  store ptr %26, ptr %27, align 8
  br label %28

28:                                               ; preds = %48, %2
  %29 = call noundef zeroext i1 @_ZNK6V3ListI13V3GraphVertexXadL_ZNS0_5linksEvEES0_E19SimpleItertatorImplIS0_Lb0EEneERKS3_(ptr noundef nonnull align 8 dereferenceable(8) %6, ptr noundef nonnull align 8 dereferenceable(8) %7)
  br i1 %29, label %31, label %30

30:                                               ; preds = %28
  call void @llvm.lifetime.end.p0(i64 8, ptr %7) #3
  call void @llvm.lifetime.end.p0(i64 8, ptr %6) #3
  call void @llvm.lifetime.end.p0(i64 8, ptr %5) #3
  br label %50

31:                                               ; preds = %28
  call void @llvm.lifetime.start.p0(i64 8, ptr %8) #3
  %32 = call noundef nonnull align 8 dereferenceable(80) ptr @_ZNK6V3ListI13V3GraphVertexXadL_ZNS0_5linksEvEES0_E19SimpleItertatorImplIS0_Lb0EEdeEv(ptr noundef nonnull align 8 dereferenceable(8) %6)
  store ptr %32, ptr %8, align 8, !tbaa !13
  %33 = load ptr, ptr %8, align 8, !tbaa !13
  %34 = call noundef i32 @_ZNK13V3GraphVertex5colorEv(ptr noundef nonnull align 8 dereferenceable(80) %33)
  %35 = icmp ne i32 %34, 0
  br i1 %35, label %36, label %47

36:                                               ; preds = %31
  call void @llvm.lifetime.start.p0(i64 8, ptr %9) #3
  %37 = call noalias noundef nonnull ptr @_Znwm(i64 noundef 112) #21
  %38 = getelementptr inbounds nuw %class.GraphAcyc, ptr %17, i32 0, i32 1
  %39 = load ptr, ptr %8, align 8, !tbaa !13
  invoke void @_ZN15GraphAcycVertexC2EP7V3GraphP13V3GraphVertex(ptr noundef nonnull align 8 dereferenceable(112) %37, ptr noundef %38, ptr noundef %39)
          to label %40 unwind label %43

40:                                               ; preds = %36
  store ptr %37, ptr %9, align 8, !tbaa !15
  %41 = load ptr, ptr %8, align 8, !tbaa !13
  %42 = load ptr, ptr %9, align 8, !tbaa !15
  call void @_ZN13V3GraphVertex5userpEPv(ptr noundef nonnull align 8 dereferenceable(80) %41, ptr noundef %42)
  call void @llvm.lifetime.end.p0(i64 8, ptr %9) #3
  br label %47

43:                                               ; preds = %36
  %44 = landingpad { ptr, i32 }
          cleanup
  %45 = extractvalue { ptr, i32 } %44, 0
  store ptr %45, ptr %10, align 8
  %46 = extractvalue { ptr, i32 } %44, 1
  store i32 %46, ptr %11, align 4
  call void @_ZdlPvm(ptr noundef %37, i64 noundef 112) #22
  call void @llvm.lifetime.end.p0(i64 8, ptr %9) #3
  call void @llvm.lifetime.end.p0(i64 8, ptr %8) #3
  call void @llvm.lifetime.end.p0(i64 8, ptr %7) #3
  call void @llvm.lifetime.end.p0(i64 8, ptr %6) #3
  call void @llvm.lifetime.end.p0(i64 8, ptr %5) #3
  br label %76

47:                                               ; preds = %40, %31
  call void @llvm.lifetime.end.p0(i64 8, ptr %8) #3
  br label %48

48:                                               ; preds = %47
  %49 = call noundef nonnull align 8 dereferenceable(8) ptr @_ZN6V3ListI13V3GraphVertexXadL_ZNS0_5linksEvEES0_E19SimpleItertatorImplIS0_Lb0EEppEv(ptr noundef nonnull align 8 dereferenceable(8) %6)
  br label %28

50:                                               ; preds = %30
  call void @llvm.lifetime.start.p0(i64 8, ptr %12) #3
  %51 = load ptr, ptr %4, align 8, !tbaa !9
  %52 = call noundef nonnull align 8 dereferenceable(16) ptr @_ZN7V3Graph8verticesEv(ptr noundef nonnull align 8 dereferenceable(24) %51)
  store ptr %52, ptr %12, align 8, !tbaa !11
  call void @llvm.lifetime.start.p0(i64 8, ptr %13) #3
  %53 = load ptr, ptr %12, align 8, !tbaa !11
  %54 = call ptr @_ZN6V3ListI13V3GraphVertexXadL_ZNS0_5linksEvEES0_E5beginEv(ptr noundef nonnull align 8 dereferenceable(16) %53)
  %55 = getelementptr inbounds nuw %"class.V3List<V3GraphVertex, &V3GraphVertex::links>::SimpleItertatorImpl", ptr %13, i32 0, i32 0
  store ptr %54, ptr %55, align 8
  call void @llvm.lifetime.start.p0(i64 8, ptr %14) #3
  %56 = load ptr, ptr %12, align 8, !tbaa !11
  %57 = call ptr @_ZN6V3ListI13V3GraphVertexXadL_ZNS0_5linksEvEES0_E3endEv(ptr noundef nonnull align 8 dereferenceable(16) %56)
  %58 = getelementptr inbounds nuw %"class.V3List<V3GraphVertex, &V3GraphVertex::links>::SimpleItertatorImpl", ptr %14, i32 0, i32 0
  store ptr %57, ptr %58, align 8
  br label %59

59:                                               ; preds = %73, %50
  %60 = call noundef zeroext i1 @_ZNK6V3ListI13V3GraphVertexXadL_ZNS0_5linksEvEES0_E19SimpleItertatorImplIS0_Lb0EEneERKS3_(ptr noundef nonnull align 8 dereferenceable(8) %13, ptr noundef nonnull align 8 dereferenceable(8) %14)
  br i1 %60, label %62, label %61

61:                                               ; preds = %59
  call void @llvm.lifetime.end.p0(i64 8, ptr %14) #3
  call void @llvm.lifetime.end.p0(i64 8, ptr %13) #3
  call void @llvm.lifetime.end.p0(i64 8, ptr %12) #3
  br label %75

62:                                               ; preds = %59
  call void @llvm.lifetime.start.p0(i64 8, ptr %15) #3
  %63 = call noundef nonnull align 8 dereferenceable(80) ptr @_ZNK6V3ListI13V3GraphVertexXadL_ZNS0_5linksEvEES0_E19SimpleItertatorImplIS0_Lb0EEdeEv(ptr noundef nonnull align 8 dereferenceable(8) %13)
  store ptr %63, ptr %15, align 8, !tbaa !13
  %64 = load ptr, ptr %15, align 8, !tbaa !13
  %65 = call noundef i32 @_ZNK13V3GraphVertex5colorEv(ptr noundef nonnull align 8 dereferenceable(80) %64)
  %66 = icmp ne i32 %65, 0
  br i1 %66, label %67, label %72

67:                                               ; preds = %62
  call void @llvm.lifetime.start.p0(i64 8, ptr %16) #3
  %68 = load ptr, ptr %15, align 8, !tbaa !13
  %69 = call noundef ptr @_ZNK13V3GraphVertex5userpEv(ptr noundef nonnull align 8 dereferenceable(80) %68)
  store ptr %69, ptr %16, align 8, !tbaa !15
  %70 = load ptr, ptr %15, align 8, !tbaa !13
  %71 = load ptr, ptr %16, align 8, !tbaa !15
  call void @_ZN9GraphAcyc17buildGraphIterateEP13V3GraphVertexP15GraphAcycVertex(ptr noundef nonnull align 8 dereferenceable(88) %17, ptr noundef %70, ptr noundef %71)
  call void @llvm.lifetime.end.p0(i64 8, ptr %16) #3
  br label %72

72:                                               ; preds = %67, %62
  call void @llvm.lifetime.end.p0(i64 8, ptr %15) #3
  br label %73

73:                                               ; preds = %72
  %74 = call noundef nonnull align 8 dereferenceable(8) ptr @_ZN6V3ListI13V3GraphVertexXadL_ZNS0_5linksEvEES0_E19SimpleItertatorImplIS0_Lb0EEppEv(ptr noundef nonnull align 8 dereferenceable(8) %13)
  br label %59

75:                                               ; preds = %61
  ret void

76:                                               ; preds = %43
  %77 = load ptr, ptr %10, align 8
  %78 = load i32, ptr %11, align 4
  %79 = insertvalue { ptr, i32 } poison, ptr %77, 0
  %80 = insertvalue { ptr, i32 } %79, i32 %78, 1
  resume { ptr, i32 } %80
}