; Function Attrs: mustprogress uwtable
define dso_local void @_ZN9GraphAcyc10buildGraphEP7V3Graph(ptr noundef nonnull align 8 dereferenceable(88) %0, ptr noundef nonnull %1) local_unnamed_addr #3 align 2 personality ptr @__gxx_personality_v0 {
  tail call void @_ZN7V3Graph17userClearVerticesEv(ptr noundef nonnull align 8 dereferenceable(24) %1)
  tail call void @_ZN7V3Graph14userClearEdgesEv(ptr noundef nonnull align 8 dereferenceable(24) %1)
  %3 = getelementptr inbounds nuw i8, ptr %1, i64 8
  %.sroa.026.033 = load ptr, ptr %3, align 8, !tbaa !4
  %.not3134 = icmp eq ptr %.sroa.026.033, null
  br i1 %.not3134, label %._crit_edge, label %.lr.ph

.lr.ph:                                           ; preds = %2
  %4 = getelementptr inbounds nuw i8, ptr %0, i64 8
  br label %5

.preheader:                                       ; preds = %19
  %.sroa.020.036.pre = load ptr, ptr %3, align 8, !tbaa !4
  %.not3237 = icmp eq ptr %.sroa.020.036.pre, null
  br i1 %.not3237, label %._crit_edge, label %.lr.ph39

5:                                                ; preds = %.lr.ph, %19
  %.sroa.026.035 = phi ptr [ %.sroa.026.033, %.lr.ph ], [ %.sroa.026.0, %19 ]
  %6 = getelementptr inbounds nuw i8, ptr %.sroa.026.035, i64 8
  %7 = load ptr, ptr %6, align 8, !tbaa !9
  %.not.i19 = icmp eq ptr %7, null
  %8 = select i1 %.not.i19, ptr %.sroa.026.035, ptr %7
  tail call void @llvm.prefetch.p0(ptr nonnull %8, i32 1, i32 3, i32 1)
  %9 = getelementptr inbounds nuw i8, ptr %.sroa.026.035, i64 64
  %10 = load i32, ptr %9, align 8, !tbaa !11
  %.not18 = icmp eq i32 %10, 0
  br i1 %.not18, label %19, label %11

11:                                               ; preds = %5
  %12 = tail call noalias noundef nonnull dereferenceable(112) ptr @_Znwm(i64 noundef 112) #21
  invoke void @_ZN13V3GraphVertexC2EP7V3Graph(ptr noundef nonnull align 8 dereferenceable(112) %12, ptr noundef nonnull %4)
          to label %13 unwind label %17

13:                                               ; preds = %11
  store ptr getelementptr inbounds nuw inrange(-16, 104) (i8, ptr @_ZTV15GraphAcycVertex, i64 16), ptr %12, align 8, !tbaa !18
  %14 = getelementptr inbounds nuw i8, ptr %12, i64 80
  store ptr %.sroa.026.035, ptr %14, align 8, !tbaa !20
  %15 = getelementptr inbounds nuw i8, ptr %12, i64 88
  tail call void @llvm.memset.p0.i64(ptr noundef nonnull align 8 dereferenceable(22) %15, i8 0, i64 22, i1 false)
  %16 = getelementptr inbounds nuw i8, ptr %.sroa.026.035, i64 72
  store ptr %12, ptr %16, align 8, !tbaa !25
  %.sroa.026.0.pre = load ptr, ptr %6, align 8, !tbaa !4
  br label %19

17:                                               ; preds = %11
  %18 = landingpad { ptr, i32 }
          cleanup
  tail call void @_ZdlPvm(ptr noundef nonnull %12, i64 noundef 112) #22
  resume { ptr, i32 } %18

19:                                               ; preds = %13, %5
  %.sroa.026.0 = phi ptr [ %.sroa.026.0.pre, %13 ], [ %7, %5 ]
  %.not31 = icmp eq ptr %.sroa.026.0, null
  br i1 %.not31, label %.preheader, label %5

._crit_edge:                                      ; preds = %28, %2, %.preheader
  ret void

.lr.ph39:                                         ; preds = %.preheader, %28
  %.sroa.020.038 = phi ptr [ %.sroa.020.0, %28 ], [ %.sroa.020.036.pre, %.preheader ]
  %20 = getelementptr inbounds nuw i8, ptr %.sroa.020.038, i64 8
  %21 = load ptr, ptr %20, align 8, !tbaa !9
  %.not.i = icmp eq ptr %21, null
  %22 = select i1 %.not.i, ptr %.sroa.020.038, ptr %21
  tail call void @llvm.prefetch.p0(ptr nonnull %22, i32 1, i32 3, i32 1)
  %23 = getelementptr inbounds nuw i8, ptr %.sroa.020.038, i64 64
  %24 = load i32, ptr %23, align 8, !tbaa !11
  %.not = icmp eq i32 %24, 0
  br i1 %.not, label %28, label %25

25:                                               ; preds = %.lr.ph39
  %26 = getelementptr inbounds nuw i8, ptr %.sroa.020.038, i64 72
  %27 = load ptr, ptr %26, align 8, !tbaa !25
  tail call void @_ZN9GraphAcyc17buildGraphIterateEP13V3GraphVertexP15GraphAcycVertex(ptr noundef nonnull align 8 dereferenceable(88) %0, ptr noundef nonnull %.sroa.020.038, ptr noundef %27)
  %.sroa.020.0.pre = load ptr, ptr %20, align 8, !tbaa !4
  br label %28

28:                                               ; preds = %25, %.lr.ph39
  %.sroa.020.0 = phi ptr [ %.sroa.020.0.pre, %25 ], [ %21, %.lr.ph39 ]
  %.not32 = icmp eq ptr %.sroa.020.0, null
  br i1 %.not32, label %._crit_edge, label %.lr.ph39
}